; Function Attrs: mustprogress uwtable
define void @_ZN5Yosys10ScriptPass10run_scriptEPNS_5RTLIL6DesignENSt7__cxx1112basic_stringIcSt11char_traitsIcESaIcEEES9_(ptr noundef nonnull align 8 dereferenceable(184) initializes((104, 106), (112, 120)) %0, ptr noundef %1, ptr noundef nonnull %2, ptr noundef %3) local_unnamed_addr #4 align 2 {
  %5 = getelementptr inbounds nuw i8, ptr %0, i64 105
  store i8 0, ptr %5, align 1, !tbaa !144
  %6 = getelementptr inbounds nuw i8, ptr %0, i64 112
  store ptr %1, ptr %6, align 8, !tbaa !140
  %7 = getelementptr inbounds nuw i8, ptr %2, i64 8
  %8 = load i64, ptr %7, align 8, !tbaa !23
  %9 = icmp eq i64 %8, 0
  %10 = getelementptr inbounds nuw i8, ptr %0, i64 104
  %11 = zext i1 %9 to i8
  store i8 %11, ptr %10, align 8, !tbaa !143
  %12 = getelementptr inbounds nuw i8, ptr %0, i64 120
  tail call void @_ZNSt7__cxx1112basic_stringIcSt11char_traitsIcESaIcEE9_M_assignERKS4_(ptr noundef nonnull align 8 dereferenceable(32) %12, ptr noundef nonnull align 8 dereferenceable(32) %2)
  %13 = getelementptr inbounds nuw i8, ptr %0, i64 152
  tail call void @_ZNSt7__cxx1112basic_stringIcSt11char_traitsIcESaIcEE9_M_assignERKS4_(ptr noundef nonnull align 8 dereferenceable(32) %13, ptr noundef nonnull align 8 dereferenceable(32) %3)
  %14 = load ptr, ptr %0, align 8, !tbaa !28
  %15 = getelementptr inbounds nuw i8, ptr %14, i64 72
  %16 = load ptr, ptr %15, align 8
  tail call void %16(ptr noundef nonnull align 8 dereferenceable(184) %0)
  ret void
}